; Function Attrs: mustprogress nounwind uwtable
define hidden noundef zeroext i1 @_ZNK8G1Policy30should_allocate_mutator_regionEv(ptr noundef nonnull align 8 dereferenceable(552) %0) local_unnamed_addr #1 align 2 {
  %2 = getelementptr inbounds i8, ptr %0, i64 240
  %3 = load ptr, ptr %2, align 8
  %4 = getelementptr inbounds i8, ptr %3, i64 984
  %5 = load i32, ptr %4, align 8
  %6 = getelementptr inbounds i8, ptr %3, i64 1016
  %7 = tail call noundef i32 @_ZNK17G1SurvivorRegions6lengthEv(ptr noundef nonnull align 8 dereferenceable(32) %6) #18
  %8 = add i32 %7, %5
  %9 = getelementptr inbounds i8, ptr %0, i64 108
  %10 = load volatile i32, ptr %9, align 4
  %11 = icmp ult i32 %8, %10
  ret i1 %11
}